; Function Attrs: mustprogress nounwind uwtable
define dso_local void @_ZN3net18QuicFixedTagVectorD0Ev(ptr noundef nonnull align 8 dereferenceable(73) %this) unnamed_addr #7 align 2 personality ptr @__gxx_personality_v0 {
entry:
  store ptr getelementptr inbounds ({ [6 x ptr] }, ptr @_ZTVN3net18QuicFixedTagVectorE, i64 0, i32 0, i64 2), ptr %this, align 8
  %receive_values_.i = getelementptr inbounds i8, ptr %this, i64 48
  %0 = load ptr, ptr %receive_values_.i, align 8
  %tobool.not.i.i.i.i = icmp eq ptr %0, null
  br i1 %tobool.not.i.i.i.i, label %_ZNSt6vectorIjSaIjEED2Ev.exit.i, label %if.then.i.i.i.i

if.then.i.i.i.i:                                  ; preds = %entry
  tail call void @_ZdlPv(ptr noundef nonnull %0) #19
  br label %_ZNSt6vectorIjSaIjEED2Ev.exit.i

_ZNSt6vectorIjSaIjEED2Ev.exit.i:                  ; preds = %if.then.i.i.i.i, %entry
  %send_values_.i = getelementptr inbounds i8, ptr %this, i64 16
  %1 = load ptr, ptr %send_values_.i, align 8
  %tobool.not.i.i.i1.i = icmp eq ptr %1, null
  br i1 %tobool.not.i.i.i1.i, label %_ZN3net18QuicFixedTagVectorD2Ev.exit, label %if.then.i.i.i2.i

if.then.i.i.i2.i:                                 ; preds = %_ZNSt6vectorIjSaIjEED2Ev.exit.i
  tail call void @_ZdlPv(ptr noundef nonnull %1) #19
  br label %_ZN3net18QuicFixedTagVectorD2Ev.exit

_ZN3net18QuicFixedTagVectorD2Ev.exit:             ; preds = %_ZNSt6vectorIjSaIjEED2Ev.exit.i, %if.then.i.i.i2.i
  tail call void @_ZdlPv(ptr noundef nonnull %this) #19
  ret void
}